target datalayout = "e-m:e-p270:32:32-p271:32:32-p272:64:64-i64:64-i128:128-f80:128-n8:16:32:64-S128"
target triple = "x86_64-pc-linux-gnu"

%struct.ParseState = type { ptr, ptr, i32, i32, ptr, ptr, ptr, ptr, ptr, ptr, i8, ptr, ptr, ptr, ptr, ptr, ptr, i8, ptr, i32, i32, ptr, ptr, i8, i8, ptr, i8, i8, i8, i8, i8, ptr, ptr, ptr, ptr, ptr, ptr }
%struct.List = type { i32, i32, i32, ptr, [0 x %union.ListCell] }
%union.ListCell = type { ptr }
%struct.Var = type { %struct.Expr, i32, i16, i32, i32, i32, ptr, i32, i32, i32, i16, i32 }
%struct.Expr = type { i32 }

; Function Attrs: inlinehint nounwind uwtable
define internal ptr @list_nth_cell(ptr noundef %0, i32 noundef %1) #6 {
  %3 = alloca ptr, align 8
  %4 = alloca i32, align 4
  store ptr %0, ptr %3, align 8
  store i32 %1, ptr %4, align 4
  %5 = load ptr, ptr %3, align 8
  %6 = getelementptr inbounds nuw %struct.List, ptr %5, i32 0, i32 3
  %7 = load ptr, ptr %6, align 8
  %8 = load i32, ptr %4, align 4
  %9 = sext i32 %8 to i64
  %10 = getelementptr inbounds %union.ListCell, ptr %7, i64 %9
  ret ptr %10
}

; Function Attrs: inlinehint nounwind uwtable
define internal ptr @list_nth(ptr noundef %0, i32 noundef %1) #6 {
  %3 = alloca ptr, align 8
  %4 = alloca i32, align 4
  store ptr %0, ptr %3, align 8
  store i32 %1, ptr %4, align 4
  %5 = load ptr, ptr %3, align 8
  %6 = load i32, ptr %4, align 4
  %7 = call ptr @list_nth_cell(ptr noundef %5, i32 noundef %6)
  %8 = load ptr, ptr %7, align 8
  ret ptr %8
}

; Function Attrs: inlinehint nounwind uwtable
define internal i32 @list_length(ptr noundef %0) #6 {
  %2 = alloca ptr, align 8
  store ptr %0, ptr %2, align 8
  %3 = load ptr, ptr %2, align 8
  %4 = icmp ne ptr %3, null
  br i1 %4, label %5, label %9

5:                                                ; preds = %1
  %6 = load ptr, ptr %2, align 8
  %7 = getelementptr inbounds nuw %struct.List, ptr %6, i32 0, i32 1
  %8 = load i32, ptr %7, align 4
  br label %10

9:                                                ; preds = %1
  br label %10

10:                                               ; preds = %9, %5
  %11 = phi i32 [ %8, %5 ], [ 0, %9 ]
  ret i32 %11
}

; Function Attrs: nounwind uwtable
define dso_local void @markNullableIfNeeded(ptr noundef %0, ptr noundef %1) #0 {
  %3 = alloca ptr, align 8
  %4 = alloca ptr, align 8
  %5 = alloca i32, align 4
  %6 = alloca ptr, align 8
  %7 = alloca i32, align 4
  store ptr %0, ptr %3, align 8
  store ptr %1, ptr %4, align 8
  call void @llvm.lifetime.start.p0(i64 4, ptr %5) #8
  %8 = load ptr, ptr %4, align 8
  %9 = getelementptr inbounds nuw %struct.Var, ptr %8, i32 0, i32 1
  %10 = load i32, ptr %9, align 4
  store i32 %10, ptr %5, align 4
  call void @llvm.lifetime.start.p0(i64 8, ptr %6) #8
  call void @llvm.lifetime.start.p0(i64 4, ptr %7) #8
  store i32 0, ptr %7, align 4
  br label %11

11:                                               ; preds = %22, %2
  %12 = load i32, ptr %7, align 4
  %13 = load ptr, ptr %4, align 8
  %14 = getelementptr inbounds nuw %struct.Var, ptr %13, i32 0, i32 7
  %15 = load i32, ptr %14, align 8
  %16 = icmp ult i32 %12, %15
  br i1 %16, label %18, label %17

17:                                               ; preds = %11
  call void @llvm.lifetime.end.p0(i64 4, ptr %7) #8
  br label %25

18:                                               ; preds = %11
  %19 = load ptr, ptr %3, align 8
  %20 = getelementptr inbounds nuw %struct.ParseState, ptr %19, i32 0, i32 0
  %21 = load ptr, ptr %20, align 8
  store ptr %21, ptr %3, align 8
  br label %22

22:                                               ; preds = %18
  %23 = load i32, ptr %7, align 4
  %24 = add i32 %23, 1
  store i32 %24, ptr %7, align 4
  br label %11, !llvm.loop !20

25:                                               ; preds = %17
  %26 = load i32, ptr %5, align 4
  %27 = icmp sgt i32 %26, 0
  br i1 %27, label %28, label %42

28:                                               ; preds = %25
  %29 = load i32, ptr %5, align 4
  %30 = load ptr, ptr %3, align 8
  %31 = getelementptr inbounds nuw %struct.ParseState, ptr %30, i32 0, i32 7
  %32 = load ptr, ptr %31, align 8
  %33 = call i32 @list_length(ptr noundef %32)
  %34 = icmp sle i32 %29, %33
  br i1 %34, label %35, label %42

35:                                               ; preds = %28
  %36 = load ptr, ptr %3, align 8
  %37 = getelementptr inbounds nuw %struct.ParseState, ptr %36, i32 0, i32 7
  %38 = load ptr, ptr %37, align 8
  %39 = load i32, ptr %5, align 4
  %40 = sub i32 %39, 1
  %41 = call ptr @list_nth(ptr noundef %38, i32 noundef %40)
  store ptr %41, ptr %6, align 8
  br label %43

42:                                               ; preds = %28, %25
  store ptr null, ptr %6, align 8
  br label %43

43:                                               ; preds = %42, %35
  %44 = load ptr, ptr %6, align 8
  %45 = icmp ne ptr %44, null
  br i1 %45, label %46, label %54

46:                                               ; preds = %43
  %47 = load ptr, ptr %4, align 8
  %48 = getelementptr inbounds nuw %struct.Var, ptr %47, i32 0, i32 6
  %49 = load ptr, ptr %48, align 8
  %50 = load ptr, ptr %6, align 8
  %51 = call ptr @bms_union(ptr noundef %49, ptr noundef %50)
  %52 = load ptr, ptr %4, align 8
  %53 = getelementptr inbounds nuw %struct.Var, ptr %52, i32 0, i32 6
  store ptr %51, ptr %53, align 8
  br label %54

54:                                               ; preds = %46, %43
  call void @llvm.lifetime.end.p0(i64 8, ptr %6) #8
  call void @llvm.lifetime.end.p0(i64 4, ptr %5) #8
  ret void
}