; Function Attrs: nounwind uwtable
define dso_local void @markNullableIfNeeded(ptr noundef readonly captures(none) %0, ptr noundef captures(none) %1) local_unnamed_addr #0 {
  %3 = getelementptr inbounds nuw i8, ptr %1, i64 4
  %4 = load i32, ptr %3, align 4
  %5 = getelementptr inbounds nuw i8, ptr %1, i64 32
  %6 = load i32, ptr %5, align 8
  %.not22 = icmp eq i32 %6, 0
  br i1 %.not22, label %._crit_edge, label %.lr.ph

._crit_edge:                                      ; preds = %.lr.ph, %2
  %.014.lcssa = phi ptr [ %0, %2 ], [ %8, %.lr.ph ]
  %7 = icmp sgt i32 %4, 0
  br i1 %7, label %10, label %.thread

.lr.ph:                                           ; preds = %2, %.lr.ph
  %.021 = phi i32 [ %9, %.lr.ph ], [ 0, %2 ]
  %.01420 = phi ptr [ %8, %.lr.ph ], [ %0, %2 ]
  %8 = load ptr, ptr %.01420, align 8
  %9 = add nuw i32 %.021, 1
  %exitcond.not = icmp eq i32 %9, %6
  br i1 %exitcond.not, label %._crit_edge, label %.lr.ph, !llvm.loop !12

10:                                               ; preds = %._crit_edge
  %11 = getelementptr inbounds nuw i8, ptr %.014.lcssa, i64 48
  %12 = load ptr, ptr %11, align 8
  %.not.i = icmp eq ptr %12, null
  br i1 %.not.i, label %.thread, label %list_length.exit

list_length.exit:                                 ; preds = %10
  %13 = getelementptr inbounds nuw i8, ptr %12, i64 4
  %14 = load i32, ptr %13, align 4
  %.not = icmp sgt i32 %4, %14
  br i1 %.not, label %.thread, label %15

15:                                               ; preds = %list_length.exit
  %16 = getelementptr i8, ptr %12, i64 16
  %.val = load ptr, ptr %16, align 8
  %17 = zext nneg i32 %4 to i64
  %18 = getelementptr %union.ListCell, ptr %.val, i64 %17
  %19 = getelementptr i8, ptr %18, i64 -8
  %20 = load ptr, ptr %19, align 8
  %.not16 = icmp eq ptr %20, null
  br i1 %.not16, label %.thread, label %21

21:                                               ; preds = %15
  %22 = getelementptr inbounds nuw i8, ptr %1, i64 24
  %23 = load ptr, ptr %22, align 8
  %24 = tail call ptr @bms_union(ptr noundef %23, ptr noundef nonnull %20) #11
  store ptr %24, ptr %22, align 8
  br label %.thread

.thread:                                          ; preds = %10, %._crit_edge, %list_length.exit, %21, %15
  ret void
}